(dp0
(Valbendazole
p1
Vsgc-0946
p2
tp3
(VB09
p4
I40
tp5
s(Vchir-99021
p6
Vencorafenib
p7
tp8
(VB10
p9
I40
tp10
s(Vneostigmine
p11
Vtacrolimus
p12
tp13
(VB11
p14
I40
tp15
s(Vflubendazole
p16
Vtolbutamide
p17
tp18
(VC09
p19
I40
tp20
s(Vcandesartan
p21
Vdigitoxin
p22
tp23
(VC10
p24
I40
tp25
s(Vfluvastatin
p26
Vmycophenolic acid
p27
tp28
(VC11
p29
I40
tp30
s(Vgsk-1059615
p31
Vrgfp-966
p32
tp33
(VD09
p34
I40
tp35
s(Vmc 1568
p36
Vsulfadimethoxine
p37
tp38
(VD10
p39
I40
tp40
s(g7
Vethynodiol
p41
tp42
(VD11
p43
I40
tp44
s(Vlaq824
p45
Vresveratrol
p46
tp47
(VE09
p48
I40
tp49
s(Vgsk1120212
p50
Vmethyldopa
p51
tp52
(VE10
p53
I40
tp54
s(Vbortezomib
p55
g36
tp56
(VE11
p57
I40
tp58
s(Vpac-1
p59
Vtrifluridine
p60
tp61
(VF09
p62
I40
tp63
s(g1
Vrolipram
p64
tp65
(VF10
p66
I40
tp67
s(Vatorvastatin
p68
g2
tp69
(VF11
p70
I40
tp71
s(g36
Vzm447439
p72
tp73
(VG09
p74
I40
tp75
s(g7
Vrifapentine
p76
tp77
(VG10
p78
I40
tp79
s(g51
g2
tp80
(VG11
p81
I40
tp82
s(Vouabain
p83
g12
tp84
(VH09
p85
I40
tp86
s(Vcantharidin
p87
Vsimvastatin
p88
tp89
(VH10
p90
I40
tp91
s(Vgsk-126
p92
Vrifampicin
p93
tp94
(VH11
p95
I40
tp96
s(Veverolimus
p97
g32
tp98
(VI09
p99
I40
tp100
s(Vpik-75
p101
Vsgc-cbp30
p102
tp103
(VI10
p104
I40
tp105
s(Vcarfilzomib
p106
Vdaunorubicin
p107
tp108
(VI11
p109
I40
tp110
s(Vhexamethonium
p111
g88
tp112
(VJ09
p113
I40
tp114
s(Vpaclitaxel
p115
g72
tp116
(VJ10
p117
I40
tp118
s(g27
Vretinoic acid
p119
tp120
(VJ11
p121
I40
tp122
s(Vcyclosporin-a
p123
g93
tp124
(VK09
p125
I40
tp126
s(Vibutilide
p127
Vpanobinostat
p128
tp129
(VK10
p130
I40
tp131
s(g128
Vsulfamethizole
p132
tp133
(VK11
p134
I40
tp135
s(g115
Vtyrphostin ag1478
p136
tp137
(VL09
p138
I40
tp139
s(Vetoposide
p140
Vexemestane
p141
tp142
(VL10
p143
I40
tp144
s(Vdigoxin
p145
Vikk-16
p146
tp147
(VL11
p148
I40
tp149
s(Vaprepitant
p150
Vsulfamethoxypyridazine
p151
tp152
(VM09
p153
I40
tp154
s(Vcortisol
p155
Vdocetaxel
p156
tp157
(VM10
p158
I40
tp159
s(g41
g51
tp160
(VM11
p161
I40
tp162
sg156
(VN09
p163
I40
tp164
sg127
(VN10
p165
I40
tp166
sg87
(VN11
p167
I40
tp168
sg41
(VO09
p169
I40
tp170
sg21
(VO10
p171
I40
tp172
sg88
(VO11
p173
I40
tp174
sg59
(VG08
p175
I40
tp176
sg141
(VH08
p177
I40
tp178
sg26
(VI08
p179
I40
tp180
sg146
(VJ08
p181
I40
tp182
sg132
(VF12
p183
I40
tp184
sg16
(VG12
p185
I40
tp186
sg36
(VH12
p187
I40
tp188
sg115
(VI12
p189
I40
tp190
sg150
(VJ12
p191
I40
tp192
sg106
(VK12
p193
I40
tp194
s.