(dp0
Vdoxorubicin
p1
(VB02
p2
I20
tp3
sVtorin 2
p4
(VB03
p5
I20
tp6
sVdaunorubicin
p7
(VB04
p8
I20
tp9
sVgsk1120212
p10
(VB05
p11
I20
tp12
sVciclopirox
p13
(VB06
p14
I20
tp15
sVmelphalan
p16
(VB07
p17
I20
tp18
sVdigitoxin
p19
(VC02
p20
I20
tp21
sVdigoxin
p22
(VC03
p23
I20
tp24
sVmycophenolic acid
p25
(VC04
p26
I20
tp27
sVzm447439
p28
(VC05
p29
I20
tp30
sVtopotecan
p31
(VC06
p32
I20
tp33
sVsgc-cbp30
p34
(VC07
p35
I20
tp36
sVanisomycin
p37
(VD02
p38
I20
tp39
sVcalcipotriol
p40
(VD03
p41
I20
tp42
sVlomefloxacin
p43
(VD04
p44
I20
tp45
s(g1
g4
tp46
(VD05
p47
I20
tp48
s(g1
g7
tp49
(VD06
p50
I20
tp51
s(g1
g10
tp52
(VD07
p53
I20
tp54
s(g1
g13
tp55
(VE02
p56
I20
tp57
s(g1
g16
tp58
(VE03
p59
I20
tp60
s(g1
g19
tp61
(VE04
p62
I20
tp63
s(g1
g22
tp64
(VE05
p65
I20
tp66
s(g1
g25
tp67
(VE06
p68
I20
tp69
s(g1
g28
tp70
(VE07
p71
I20
tp72
s(g1
g31
tp73
(VF02
p74
I20
tp75
s(g1
g34
tp76
(VF03
p77
I20
tp78
s(g1
g37
tp79
(VF04
p80
I20
tp81
s(g4
g7
tp82
(VF05
p83
I20
tp84
s(g4
g10
tp85
(VF06
p86
I20
tp87
s(g4
g13
tp88
(VF07
p89
I20
tp90
s(g4
g16
tp91
(VG02
p92
I20
tp93
s(g4
g19
tp94
(VG03
p95
I20
tp96
s(g4
g22
tp97
(VG04
p98
I20
tp99
s(g4
g25
tp100
(VG05
p101
I20
tp102
s(g4
g28
tp103
(VG06
p104
I20
tp105
s(g4
g31
tp106
(VG07
p107
I20
tp108
s(g4
g34
tp109
(VH02
p110
I20
tp111
s(g4
g37
tp112
(VH03
p113
I20
tp114
s(g7
g10
tp115
(VH04
p116
I20
tp117
s(g7
g13
tp118
(VH05
p119
I20
tp120
s(g7
g16
tp121
(VH06
p122
I20
tp123
s(g7
g19
tp124
(VH07
p125
I20
tp126
s(g7
g22
tp127
(VI02
p128
I20
tp129
s(g7
g25
tp130
(VI03
p131
I20
tp132
s(g7
g28
tp133
(VI04
p134
I20
tp135
s(g7
g31
tp136
(VI05
p137
I20
tp138
s(g7
g34
tp139
(VI06
p140
I20
tp141
s(g7
g37
tp142
(VI07
p143
I20
tp144
s(g10
g13
tp145
(VJ02
p146
I20
tp147
s(g10
g16
tp148
(VJ03
p149
I20
tp150
s(g10
g19
tp151
(VJ04
p152
I20
tp153
s(g10
g22
tp154
(VJ05
p155
I20
tp156
s(g10
g25
tp157
(VJ06
p158
I20
tp159
s(g10
g28
tp160
(VJ07
p161
I20
tp162
s(g10
g31
tp163
(VK02
p164
I20
tp165
s(g10
g34
tp166
(VK03
p167
I20
tp168
s(g10
g37
tp169
(VK04
p170
I20
tp171
s(g13
g16
tp172
(VK05
p173
I20
tp174
s(g13
g19
tp175
(VK06
p176
I20
tp177
s(g13
g22
tp178
(VK07
p179
I20
tp180
s(g13
g25
tp181
(VL02
p182
I20
tp183
s(g13
g28
tp184
(VL03
p185
I20
tp186
s(g13
g31
tp187
(VL04
p188
I20
tp189
s(g13
g34
tp190
(VL05
p191
I20
tp192
s(g13
g37
tp193
(VL06
p194
I20
tp195
s(g16
g19
tp196
(VL07
p197
I20
tp198
s(g16
g22
tp199
(VM02
p200
I20
tp201
s(g16
g25
tp202
(VM03
p203
I20
tp204
s(g16
g28
tp205
(VM04
p206
I20
tp207
s(g16
g31
tp208
(VM05
p209
I20
tp210
s(g16
g34
tp211
(VM06
p212
I20
tp213
s(g16
g37
tp214
(VM07
p215
I20
tp216
s(g19
g22
tp217
(VN02
p218
I20
tp219
s(g19
g25
tp220
(VN03
p221
I20
tp222
s(g19
g28
tp223
(VN04
p224
I20
tp225
s(g19
g31
tp226
(VN05
p227
I20
tp228
s(g19
g34
tp229
(VN06
p230
I20
tp231
s(g19
g37
tp232
(VN07
p233
I20
tp234
s(g22
g25
tp235
(VO02
p236
I20
tp237
s(g22
g28
tp238
(VO03
p239
I20
tp240
s(g22
g31
tp241
(VO04
p242
I20
tp243
s(g22
g34
tp244
(VO05
p245
I20
tp246
s(g22
g37
tp247
(VO06
p248
I20
tp249
s(g25
g28
tp250
(VO07
p251
I20
tp252
s(g25
g31
tp253
(VB08
p254
I20
tp255
s(g25
g34
tp256
(VC08
p257
I20
tp258
s(g25
g37
tp259
(VD08
p260
I20
tp261
s(g28
g31
tp262
(VE08
p263
I20
tp264
s(g28
g34
tp265
(VF08
p266
I20
tp267
s(g28
g37
tp268
(VK08
p269
I20
tp270
s(g31
g34
tp271
(VL08
p272
I20
tp273
s(g31
g37
tp274
(VM08
p275
I20
tp276
s(g34
g37
tp277
(VN08
p278
I20
tp279
s(g40
g43
tp280
(VO08
p281
I20
tp282
s.