(dp0
(Vdigitoxin
p1
Vpmsf
p2
tp3
(VD12
p4
I40
tp5
s(Vdigoxin
p6
Vpmsf
p7
tp8
(VE12
p9
I40
tp10
s(Vbrefeldin-a
p11
Vmethyldopa
p12
tp13
(VF12
p14
I40
tp15
s(Vdigitoxin
p16
Voxacillin
p17
tp18
(VG12
p19
I40
tp20
s(Vdigoxin
p21
Voxacillin
p22
tp23
(VH12
p24
I40
tp25
s(Vdigitoxin
p26
Vsulfamethoxypyridazine
p27
tp28
(VI12
p29
I40
tp30
s(Vdigoxin
p31
Vsulfamethoxypyridazine
p32
tp33
(VJ12
p34
I40
tp35
s(Vsulfadimethoxine
p36
Vsulfamethoxypyridazine
p37
tp38
(VK12
p39
I40
tp40
s(Vanisomycin
p41
Vbrefeldin-a
p42
tp43
(VL12
p44
I40
tp45
s(Vdigoxin
p46
Vfenbendazole
p47
tp48
(VM12
p49
I40
tp50
s(Vdigoxin
p51
Vlacidipine
p52
tp53
(VN12
p54
I40
tp55
s(Vamantadine
p56
Vdigitoxin
p57
tp58
(VB21
p59
I40
tp60
s(Vanisomycin
p61
Vmevastatin
p62
tp63
(VB22
p64
I40
tp65
s(Vchir-99021
p66
Vsgc-cbp30
p67
tp68
(VC21
p69
I40
tp70
s(Vcgs-21680
p71
Vdigitoxin
p72
tp73
(VC22
p74
I40
tp75
s(Vbrefeldin-a
p76
Vsulfaguanidine
p77
tp78
(VD21
p79
I40
tp80
s(Vbrefeldin-a
p81
Vdigoxin
p82
tp83
(VD22
p84
I40
tp85
s(Vdigoxin
p86
Vrifampicin
p87
tp88
(VE21
p89
I40
tp90
s(Vdigitoxin
p91
Vrifampicin
p92
tp93
(VE22
p94
I40
tp95
s(Vdigitoxin
p96
Vouabain
p97
tp98
(VF21
p99
I40
tp100
s(Vdigitoxin
p101
Vtenofovir
p102
tp103
(VF22
p104
I40
tp105
s(Vdigoxin
p106
Vouabain
p107
tp108
(VG21
p109
I40
tp110
s(Vneostigmine
p111
Vsgc-cbp30
p112
tp113
(VG22
p114
I40
tp115
s(Vchir-99021
p116
Vneostigmine
p117
tp118
(VH21
p119
I40
tp120
s(Vdigitoxin
p121
Vsulbactam
p122
tp123
(VH22
p124
I40
tp125
s(Vdigoxin
p126
Vsulbactam
p127
tp128
(VI21
p129
I40
tp130
s(Valfacalcidol
p131
Vdigitoxin
p132
tp133
(VI22
p134
I40
tp135
s(Vdigoxin
p136
Vhexamethonium
p137
tp138
(VJ21
p139
I40
tp140
s(Vdigitoxin
p141
Vestropipate
p142
tp143
(VJ22
p144
I40
tp145
s(Vbutamben
p146
Vdigoxin
p147
tp148
(VK21
p149
I40
tp150
s(Vdigoxin
p151
Vgalantamine
p152
tp153
(VK22
p154
I40
tp155
s(Vcortisol
p156
Vdigoxin
p157
tp158
(VL21
p159
I40
tp160
s(Vfluocinolone
p161
Vsgc-cbp30
p162
tp163
(VL22
p164
I40
tp165
s(Vfenbendazole
p166
Vsgc-cbp30
p167
tp168
(VM21
p169
I40
tp170
s(Valbendazole
p171
Vdigitoxin
p172
tp173
(VM22
p174
I40
tp175
s(Vdigoxin
p176
Vrifapentine
p177
tp178
(VN21
p179
I40
tp180
s(Vnadifloxacin
p181
Vsgc-cbp30
p182
tp183
(VN22
p184
I40
tp185
s(Vsgc-0946
p186
Vsgc-cbp30
p187
tp188
(VO21
p189
I40
tp190
sVsulfaguanidine
p191
(VO22
p192
I40
tp193
sVestropipate
p194
(VO20
p195
I40
tp196
s.