(dp0
Vmethyldopa
p1
(VC22
p2
I40
tp3
sVoxacillin
p4
(VD22
p5
I40
tp6
sValfacalcidol
p7
(VE22
p8
I40
tp9
sVtenofovir
p10
(VF22
p11
I40
tp12
sVamantadine
p13
(VG22
p14
I40
tp15
sVcgs-21680
p16
(VH22
p17
I40
tp18
sVfluocinolone
p19
(VI22
p20
I40
tp21
sVsulbactam
p22
(VJ22
p23
I40
tp24
sVhexamethonium
p25
(VK22
p26
I40
tp27
sVbutamben
p28
(VL22
p29
I40
tp30
sVrifampicin
p31
(VM22
p32
I40
tp33
sVneostigmine
p34
(VN22
p35
I40
tp36
s.