(dp0
Vsaracatinib
p1
(VB13
p2
I40
tp3
sVresatorvid
p4
(VB14
p5
I40
tp6
sVrg-4733
p7
(VB15
p8
I40
tp9
sVcanagliflozin
p10
(VB16
p11
I40
tp12
sVtelotristat
p13
(VB17
p14
I40
tp15
sVacalabrutinib
p16
(VB18
p17
I40
tp18
sVtariquidar
p19
(VB19
p20
I40
tp21
sVglasdegib
p22
(VB20
p23
I40
tp24
sVrupatadine
p25
(VB21
p26
I40
tp27
sVpf-04620110
p28
(VC13
p29
I40
tp30
sVtolperisone
p31
(VC14
p32
I40
tp33
sVamphotericin
p34
(VC15
p35
I40
tp36
sVwp-1130
p37
(VC16
p38
I40
tp39
sVsb-334867
p40
(VC17
p41
I40
tp42
sVoncrasin-1
p43
(VC18
p44
I40
tp45
sVp-22077
p46
(VC19
p47
I40
tp48
s(g1
g4
tp49
(VC20
p50
I40
tp51
s(g1
g7
tp52
(VC21
p53
I40
tp54
s(g1
g10
tp55
(VD13
p56
I40
tp57
s(g1
g13
tp58
(VD14
p59
I40
tp60
s(g1
g16
tp61
(VD15
p62
I40
tp63
s(g1
g19
tp64
(VD16
p65
I40
tp66
s(g1
g22
tp67
(VD17
p68
I40
tp69
s(g1
g25
tp70
(VD18
p71
I40
tp72
s(g1
g28
tp73
(VD19
p74
I40
tp75
s(g1
g31
tp76
(VD20
p77
I40
tp78
s(g1
g34
tp79
(VD21
p80
I40
tp81
s(g1
g37
tp82
(VE13
p83
I40
tp84
s(g1
g40
tp85
(VE14
p86
I40
tp87
s(g1
g43
tp88
(VE15
p89
I40
tp90
s(g1
g46
tp91
(VE16
p92
I40
tp93
s(g4
g7
tp94
(VE17
p95
I40
tp96
s(g4
g10
tp97
(VE18
p98
I40
tp99
s(g4
g13
tp100
(VE19
p101
I40
tp102
s(g4
g16
tp103
(VE20
p104
I40
tp105
s(g4
g19
tp106
(VE21
p107
I40
tp108
s(g4
g22
tp109
(VF13
p110
I40
tp111
s(g4
g25
tp112
(VF14
p113
I40
tp114
s(g4
g28
tp115
(VF15
p116
I40
tp117
s(g4
g31
tp118
(VF16
p119
I40
tp120
s(g4
g34
tp121
(VF17
p122
I40
tp123
s(g4
g37
tp124
(VF18
p125
I40
tp126
s(g4
g40
tp127
(VF19
p128
I40
tp129
s(g4
g43
tp130
(VF20
p131
I40
tp132
s(g4
g46
tp133
(VF21
p134
I40
tp135
s(g7
g10
tp136
(VG13
p137
I40
tp138
s(g7
g13
tp139
(VG14
p140
I40
tp141
s(g7
g16
tp142
(VG15
p143
I40
tp144
s(g7
g19
tp145
(VG16
p146
I40
tp147
s(g7
g22
tp148
(VG17
p149
I40
tp150
s(g7
g25
tp151
(VG18
p152
I40
tp153
s(g7
g28
tp154
(VG19
p155
I40
tp156
s(g7
g31
tp157
(VG20
p158
I40
tp159
s(g7
g34
tp160
(VG21
p161
I40
tp162
s(g7
g37
tp163
(VH13
p164
I40
tp165
s(g7
g40
tp166
(VH14
p167
I40
tp168
s(g7
g43
tp169
(VH15
p170
I40
tp171
s(g7
g46
tp172
(VH16
p173
I40
tp174
s(g10
g13
tp175
(VH17
p176
I40
tp177
s(g10
g16
tp178
(VH18
p179
I40
tp180
s(g10
g19
tp181
(VH19
p182
I40
tp183
s(g10
g22
tp184
(VH20
p185
I40
tp186
s(g10
g25
tp187
(VH21
p188
I40
tp189
s(g10
g28
tp190
(VI13
p191
I40
tp192
s(g10
g31
tp193
(VI14
p194
I40
tp195
s(g10
g34
tp196
(VI15
p197
I40
tp198
s(g10
g37
tp199
(VI16
p200
I40
tp201
s(g10
g40
tp202
(VI17
p203
I40
tp204
s(g10
g43
tp205
(VI18
p206
I40
tp207
s(g10
g46
tp208
(VI19
p209
I40
tp210
s(g13
g16
tp211
(VI20
p212
I40
tp213
s(g13
g19
tp214
(VI21
p215
I40
tp216
s(g13
g22
tp217
(VJ13
p218
I40
tp219
s(g13
g25
tp220
(VJ14
p221
I40
tp222
s(g13
g28
tp223
(VJ15
p224
I40
tp225
s(g13
g31
tp226
(VJ16
p227
I40
tp228
s(g13
g34
tp229
(VJ17
p230
I40
tp231
s(g13
g37
tp232
(VJ18
p233
I40
tp234
s(g13
g40
tp235
(VJ19
p236
I40
tp237
s(g13
g43
tp238
(VJ20
p239
I40
tp240
s(g13
g46
tp241
(VJ21
p242
I40
tp243
s(g16
g19
tp244
(VK13
p245
I40
tp246
s(g16
g22
tp247
(VK14
p248
I40
tp249
s(g16
g25
tp250
(VK15
p251
I40
tp252
s(g16
g28
tp253
(VK16
p254
I40
tp255
s(g16
g31
tp256
(VK17
p257
I40
tp258
s(g16
g34
tp259
(VK18
p260
I40
tp261
s(g16
g37
tp262
(VK19
p263
I40
tp264
s(g16
g40
tp265
(VK20
p266
I40
tp267
s(g16
g43
tp268
(VK21
p269
I40
tp270
s(g16
g46
tp271
(VL13
p272
I40
tp273
s(g19
g22
tp274
(VL14
p275
I40
tp276
s(g19
g25
tp277
(VL15
p278
I40
tp279
s(g19
g28
tp280
(VL16
p281
I40
tp282
s(g19
g31
tp283
(VL17
p284
I40
tp285
s(g19
g34
tp286
(VL18
p287
I40
tp288
s(g19
g37
tp289
(VL19
p290
I40
tp291
s(g19
g40
tp292
(VL20
p293
I40
tp294
s(g19
g43
tp295
(VL21
p296
I40
tp297
s(g19
g46
tp298
(VM13
p299
I40
tp300
s(g22
g25
tp301
(VM14
p302
I40
tp303
s(g22
g28
tp304
(VM15
p305
I40
tp306
s(g22
g31
tp307
(VM16
p308
I40
tp309
s(g22
g34
tp310
(VM17
p311
I40
tp312
s(g22
g37
tp313
(VM18
p314
I40
tp315
s(g22
g40
tp316
(VM19
p317
I40
tp318
s(g22
g43
tp319
(VM20
p320
I40
tp321
s(g22
g46
tp322
(VM21
p323
I40
tp324
s(g25
g28
tp325
(VN13
p326
I40
tp327
s(g25
g31
tp328
(VN14
p329
I40
tp330
s(g25
g34
tp331
(VN15
p332
I40
tp333
s(g25
g37
tp334
(VN16
p335
I40
tp336
s(g25
g40
tp337
(VN17
p338
I40
tp339
s(g25
g43
tp340
(VN18
p341
I40
tp342
s(g25
g46
tp343
(VN19
p344
I40
tp345
s(g28
g31
tp346
(VN20
p347
I40
tp348
s(g28
g34
tp349
(VN21
p350
I40
tp351
s(g28
g37
tp352
(VO13
p353
I40
tp354
s(g28
g40
tp355
(VO14
p356
I40
tp357
s(g28
g43
tp358
(VO15
p359
I40
tp360
s(g28
g46
tp361
(VO16
p362
I40
tp363
s(g31
g34
tp364
(VO17
p365
I40
tp366
s(g31
g37
tp367
(VO18
p368
I40
tp369
s(g31
g40
tp370
(VO19
p371
I40
tp372
s(g31
g43
tp373
(VO20
p374
I40
tp375
s(g31
g46
tp376
(VO21
p377
I40
tp378
s(g34
g37
tp379
(VB22
p380
I40
tp381
s(g34
g40
tp382
(VO22
p383
I40
tp384
s(g34
g43
tp385
(VB12
p386
I40
tp387
s(g34
g46
tp388
(VC12
p389
I40
tp390
s(g37
g40
tp391
(VD12
p392
I40
tp393
s(g37
g43
tp394
(VE12
p395
I40
tp396
s(g37
g46
tp397
(VL12
p398
I40
tp399
s(g40
g43
tp400
(VM12
p401
I40
tp402
s(g40
g46
tp403
(VN12
p404
I40
tp405
s(g43
g46
tp406
(VO12
p407
I40
tp408
s.