(dp0
(V5-iodotubercidin
p1
Vtrifluridine
p2
tp3
(VB02
p4
I40
tp5
s(Valbendazole
p6
Vdoxorubicin
p7
tp8
(VB03
p9
I40
tp10
s(g6
Vtorin 2
p11
tp12
(VB04
p13
I40
tp14
s(Valvespimycin
p15
Vtolbutamide
p16
tp17
(VB05
p18
I40
tp19
s(Vambrisentan
p20
Vlaq824
p21
tp22
(VB06
p23
I40
tp24
s(Vanisomycin
p25
Vciclopirox
p26
tp27
(VB07
p28
I40
tp29
s(g25
g7
tp30
(VB08
p31
I40
tp32
s(g25
Vgsk1120212
p33
tp34
(VB09
p35
I40
tp36
s(g25
g11
tp37
(VB10
p38
I40
tp39
s(Vatorvastatin
p40
Vtopotecan
p41
tp42
(VB11
p43
I40
tp44
s(Vbephenium
p45
Vrgfp-966
p46
tp47
(VC02
p48
I40
tp49
s(Vbgj398
p50
Vgsk-126
p51
tp52
(VC03
p53
I40
tp54
s(Vbms-387032
p55
Vmelphalan
p56
tp57
(VC04
p58
I40
tp59
s(Vbortezomib
p60
Vmontelukast
p61
tp62
(VC05
p63
I40
tp64
s(g60
Volopatadine
p65
tp66
(VC06
p67
I40
tp68
s(g60
Vramipril
p69
tp70
(VC07
p71
I40
tp72
s(g60
Vresveratrol
p73
tp74
(VC08
p75
I40
tp76
s(Vbrd-k17084514
p77
Vmycophenolic acid
p78
tp79
(VC09
p80
I40
tp81
s(g77
g16
tp82
(VC10
p83
I40
tp84
s(Vbrd-k54606188
p85
Vtg-101348
p86
tp87
(VC11
p88
I40
tp89
s(Vbrd-k60507178
p90
Vdaunorubicin
p91
tp92
(VD02
p93
I40
tp94
s(Vmycophenolic acid
p95
Vfenbendazole
p96
tp97
(VD03
p98
I40
tp99
s(g95
g16
tp100
(VD04
p101
I40
tp102
s(Vbrd-k74305673
p103
g16
tp104
(VD05
p105
I40
tp106
s(Vbrefeldin-a
p107
g7
tp108
(VD06
p109
I40
tp110
s(g107
g21
tp111
(VD07
p112
I40
tp113
s(Vcalcipotriol
p114
Vlomefloxacin
p115
tp116
(VD08
p117
I40
tp118
s(g114
Vu-0126
p119
tp120
(VD09
p121
I40
tp122
s(g114
Vvinblastine
p123
tp124
(VD10
p125
I40
tp126
s(Vcamptothecin
p127
g56
tp128
(VD11
p129
I40
tp130
s(g127
g73
tp131
(VE02
p132
I40
tp133
s(g127
g11
tp134
(VE03
p135
I40
tp136
s(Vcgp-60474
p137
g7
tp138
(VE04
p139
I40
tp140
s(Vchir-99021
p141
g65
tp142
(VE05
p143
I40
tp144
s(g141
Vsumatriptan
p145
tp146
(VE06
p147
I40
tp148
s(g141
Vvincristine
p149
tp150
(VE07
p151
I40
tp152
s(Vchlorothiazide
p153
Vzm447439
p154
tp155
(VE08
p156
I40
tp157
s(Vciclopirox
p158
g7
tp159
(VE09
p160
I40
tp161
s(g158
Vencorafenib
p162
tp163
(VE10
p164
I40
tp165
s(g158
g33
tp166
(VE11
p167
I40
tp168
s(g158
g56
tp169
(VF02
p170
I40
tp171
s(g158
g73
tp172
(VF03
p173
I40
tp174
s(g158
g41
tp175
(VF04
p176
I40
tp177
s(g158
g11
tp178
(VF05
p179
I40
tp180
s(Vcinobufagin
p181
g11
tp182
(VF06
p183
I40
tp184
s(Vclotrimazole
p185
g11
tp186
(VF07
p187
I40
tp188
s(Vcloxacillin
p189
Vm-344
p190
tp191
(VF08
p192
I40
tp193
s(Vcmap-erg-azd2281---lincs
p194
g56
tp195
(VF09
p196
I40
tp197
s(Vcortisol
p198
g11
tp199
(VF10
p200
I40
tp201
s(Vcyclosporin-a
p202
Vgsk-1059615
p203
tp204
(VF11
p205
I40
tp206
s(g202
Vmilrinone
p207
tp208
(VG02
p209
I40
tp210
s(g202
g11
tp211
(VG03
p212
I40
tp213
s(Vcytarabine
p214
Vomiplasib
p215
tp216
(VG04
p217
I40
tp218
s(g214
Vsgc-0946
p219
tp220
(VG05
p221
I40
tp222
s(Vdactinomycin
p223
g11
tp224
(VG06
p225
I40
tp226
s(Vdaunorubicin
p227
Vdigitoxin
p228
tp229
(VG07
p230
I40
tp231
s(g227
g7
tp232
(VG08
p233
I40
tp234
s(g227
Vlacidipine
p235
tp236
(VG09
p237
I40
tp238
s(g227
Vlovastatin
p239
tp240
(VG10
p241
I40
tp242
s(g227
Vmitoxantrone
p243
tp244
(VG11
p245
I40
tp246
s(g227
Vnadifloxacin
p247
tp248
(VH02
p249
I40
tp250
s(g227
Vouabain
p251
tp252
(VH03
p253
I40
tp254
s(g227
g11
tp255
(VH04
p256
I40
tp257
s(Vdiacerein
p258
Vsgc-cbp30
p259
tp260
(VH05
p261
I40
tp262
s(Vdigitoxin
p263
Vdigoxin
p264
tp265
(VH06
p266
I40
tp267
s(g263
g7
tp268
(VH07
p269
I40
tp270
s(g263
Vepirubicin
p271
tp272
(VH08
p273
I40
tp274
s(g263
Vsorafenib
p275
tp276
(VH09
p277
I40
tp278
s(g263
g16
tp279
(VH10
p280
I40
tp281
s(g263
g11
tp282
(VH11
p283
I40
tp284
s(Vdigoxin
p285
g51
tp286
(VI02
p287
I40
tp288
s(g285
Vpivmecillinam
p289
tp290
(VI03
p291
I40
tp292
s(g285
g259
tp293
(VI04
p294
I40
tp295
s(g285
g275
tp296
(VI05
p297
I40
tp298
s(g285
g123
tp299
(VI06
p300
I40
tp301
s(g285
Vwye-125132
p302
tp303
(VI07
p304
I40
tp305
s(Vdoxorubicin
p306
g7
tp307
(VI08
p308
I40
tp309
s(g306
g162
tp310
(VI09
p311
I40
tp312
s(g306
Vfulvestrant
p313
tp314
(VI10
p315
I40
tp316
s(g306
g33
tp317
(VI11
p318
I40
tp319
s(g306
Vko-143
p320
tp321
(VJ02
p322
I40
tp323
s(g306
g56
tp324
(VJ03
p325
I40
tp326
s(g306
Vmevastatin
p327
tp328
(VJ04
p329
I40
tp330
s(g306
g78
tp331
(VJ05
p332
I40
tp333
s(g306
g215
tp334
(VJ06
p335
I40
tp336
s(g306
Vtacrolimus
p337
tp338
(VJ07
p339
I40
tp340
s(g306
Vtetrabenazine
p341
tp342
(VJ08
p343
I40
tp344
s(g306
g16
tp345
(VJ09
p346
I40
tp347
s(g306
g41
tp348
(VJ10
p349
I40
tp350
s(g306
g11
tp351
(VJ11
p352
I40
tp353
s(Vencorafenib
p354
g33
tp355
(VK02
p356
I40
tp357
s(g354
g11
tp358
(VK03
p359
I40
tp360
s(Ventacapone
p361
g78
tp362
(VK04
p363
I40
tp364
s(Vepirubicin
p365
Vtriciribine
p366
tp367
(VK05
p368
I40
tp369
s(Vestrone
p370
Vpfi-3
p371
tp372
(VK06
p373
I40
tp374
s(Vetoposide
p375
g96
tp376
(VK07
p377
I40
tp378
s(g375
g33
tp379
(VK08
p380
I40
tp381
s(g375
g11
tp382
(VK09
p383
I40
tp384
s(g375
Vwortmannin
p385
tp386
(VK10
p387
I40
tp388
s(Veverolimus
p389
g86
tp390
(VK11
p391
I40
tp392
s(Vex-527
p393
g86
tp394
(VL02
p395
I40
tp396
s(Vgalantamine
p397
Vrolipram
p398
tp399
(VL03
p400
I40
tp401
s(Vgenistein
p402
g2
tp403
(VL04
p404
I40
tp405
s(Vgsk-1059615
p406
g190
tp407
(VL05
p408
I40
tp409
s(Vgsk1120212
p410
g327
tp411
(VL06
p412
I40
tp413
s(g410
g41
tp414
(VL07
p415
I40
tp416
s(g410
g11
tp417
(VL08
p418
I40
tp419
s(g410
g154
tp420
(VL09
p421
I40
tp422
s(g198
Vrifapentine
p423
tp424
(VL10
p425
I40
tp426
s(Vlacidipine
p427
g11
tp428
(VL11
p429
I40
tp430
s(Vlansoprazole
p431
g259
tp432
(VM02
p433
I40
tp434
s(Vlaq824
p435
g247
tp436
(VM03
p437
I40
tp438
s(g435
Vpik-75
p439
tp440
(VM04
p441
I40
tp442
s(Vm-344
p443
Vretinoic acid
p444
tp445
(VM05
p446
I40
tp447
s(g443
Vtyrphostin ag1478
p448
tp449
(VM06
p450
I40
tp451
s(Vmalonoben
p452
g78
tp453
(VM07
p454
I40
tp455
s(Vmelphalan
p456
g73
tp457
(VM08
p458
I40
tp459
s(g456
g154
tp460
(VM09
p461
I40
tp462
s(Vmethylene-blue
p463
g16
tp464
(VM10
p465
I40
tp466
s(Vmevastatin
p467
g11
tp468
(VM11
p469
I40
tp470
s(Vmiconazole
p471
Vsulfamethoxypyridazine
p472
tp473
(VN02
p474
I40
tp475
s(Vmilrinone
p476
g154
tp477
(VN03
p478
I40
tp479
s(g95
Vsulfadimethoxine
p480
tp481
(VN04
p482
I40
tp483
s(Vnifuroxazide
p484
g11
tp485
(VN05
p486
I40
tp487
s(Vomiplasib
p488
g123
tp489
(VN06
p490
I40
tp491
s(Vosi-027
p492
g259
tp493
(VN07
p494
I40
tp495
s(g492
g2
tp496
(VN08
p497
I40
tp498
s(Vpanobinostat
p499
Vro-28-1675
p500
tp501
(VN09
p502
I40
tp503
s(Vpitavastatin
p504
Vpmsf
p505
tp506
(VN10
p507
I40
tp508
s(Vpp-1
p509
g472
tp510
(VN11
p511
I40
tp512
s(Vpp-2
p513
g472
tp514
(VO02
p515
I40
tp516
s(Vpregnenolone
p517
g275
tp518
(VO03
p519
I40
tp520
s(Vpyridoxine
p521
g275
tp522
(VO04
p523
I40
tp524
s(Vresveratrol
p525
g41
tp526
(VO05
p527
I40
tp528
s(g525
g154
tp529
(VO06
p530
I40
tp531
s(Vretinoic acid
p532
g11
tp533
(VO07
p534
I40
tp535
s(Vstanolone
p536
g16
tp537
(VO08
p538
I40
tp539
s(Vtetrabenazine
p540
g123
tp541
(VO09
p542
I40
tp543
s(Vtolbutamide
p544
g366
tp545
(VO10
p546
I40
tp547
s(g544
Vunc-1215
p548
tp549
(VO11
p550
I40
tp551
s(g544
g154
tp552
(VB12
p553
I40
tp554
s(Vtopotecan
p555
g11
tp556
(VC12
p557
I40
tp558
s(Vtrifluridine
p559
Vtyrphostin ag490
p560
tp561
(VO12
p562
I40
tp563
s.