(dp0
Vpregnenolone
p1
(VB13
p2
I40
tp3
sVtyrphostin ag490
p4
(VB14
p5
I40
tp6
sVdactinomycin
p7
(VB15
p8
I40
tp9
sVbephenium
p10
(VB16
p11
I40
tp12
sVgalantamine
p13
(VB17
p14
I40
tp15
sVpp-2
p16
(VB18
p17
I40
tp18
sVnifuroxazide
p19
(VB19
p20
I40
tp21
sVpitavastatin
p22
(VC13
p23
I40
tp24
sVclotrimazole
p25
(VC14
p26
I40
tp27
sVeverolimus
p28
(VC15
p29
I40
tp30
sVpik-75
p31
(VC16
p32
I40
tp33
sVmethylene-blue
p34
(VC17
p35
I40
tp36
sVstanolone
p37
(VC18
p38
I40
tp39
sVpp-1
p40
(VC19
p41
I40
tp42
sVmalonoben
p43
(VD13
p44
I40
tp45
sVbrd-k74305673
p46
(VD14
p47
I40
tp48
sVpmsf
p49
(VD15
p50
I40
tp51
sVmiconazole
p52
(VD16
p53
I40
tp54
sVambrisentan
p55
(VD17
p56
I40
tp57
sVdiacerein
p58
(VD18
p59
I40
tp60
sVex-527
p61
(VD19
p62
I40
tp63
sVpanobinostat
p64
(VE13
p65
I40
tp66
sVentacapone
p67
(VE14
p68
I40
tp69
sVramipril
p70
(VE15
p71
I40
tp72
sVfulvestrant
p73
(VE16
p74
I40
tp75
sVrgfp-966
p76
(VE17
p77
I40
tp78
sVvincristine
p79
(VE18
p80
I40
tp81
sVsgc-0946
p82
(VE19
p83
I40
tp84
sVrifapentine
p85
(VF13
p86
I40
tp87
sVsumatriptan
p88
(VF14
p89
I40
tp90
sVu-0126
p91
(VF15
p92
I40
tp93
sVmitoxantrone
p94
(VF16
p95
I40
tp96
sVunc-1215
p97
(VF17
p98
I40
tp99
sVpfi-3
p100
(VF18
p101
I40
tp102
sVwye-125132
p103
(VF19
p104
I40
tp105
sVrolipram
p106
(VG13
p107
I40
tp108
sVtyrphostin ag1478
p109
(VG14
p110
I40
tp111
sVwortmannin
p112
(VG15
p113
I40
tp114
sVlomefloxacin
p115
(VG16
p116
I40
tp117
sVpivmecillinam
p118
(VG17
p119
I40
tp120
sVouabain
p121
(VG18
p122
I40
tp123
sVro-28-1675
p124
(VG19
p125
I40
tp126
sVsulfadimethoxine
p127
(VH13
p128
I40
tp129
sVlovastatin
p130
(VH14
p131
I40
tp132
sVko-143
p133
(VH15
p134
I40
tp135
sVtacrolimus
p136
(VH16
p137
I40
tp138
sVchlorothiazide
p139
(VH17
p140
I40
tp141
sVmontelukast
p142
(VH18
p143
I40
tp144
sVbms-387032
p145
(VH19
p146
I40
tp147
sVbrd-k60507178
p148
(VI13
p149
I40
tp150
sVlansoprazole
p151
(VI14
p152
I40
tp153
sVbgj398
p154
(VI15
p155
I40
tp156
sV5-iodotubercidin
p157
(VI16
p158
I40
tp159
sVatorvastatin
p160
(VI17
p161
I40
tp162
sVpyridoxine
p163
(VI18
p164
I40
tp165
sVcinobufagin
p166
(VI19
p167
I40
tp168
sVcloxacillin
p169
(VJ13
p170
I40
tp171
sVgenistein
p172
(VJ14
p173
I40
tp174
sVcgp-60474
p175
(VJ15
p176
I40
tp177
sVcmap-erg-azd2281---lincs
p178
(VJ16
p179
I40
tp180
sVbrd-k54606188
p181
(VJ17
p182
I40
tp183
sVestrone
p184
(VJ18
p185
I40
tp186
sValvespimycin
p187
(VJ19
p188
I40
tp189
sVbrd-k17084514
p190
(VK13
p191
I40
tp192
sValbendazole
p193
(VK14
p194
I40
tp195
sVolopatadine
p196
(VK15
p197
I40
tp198
sVfenbendazole
p199
(VK16
p200
I40
tp201
sVgsk-126
p202
(VK17
p203
I40
tp204
sVnadifloxacin
p205
(VK18
p206
I40
tp207
sVcytarabine
p208
(VK19
p209
I40
tp210
sVbrefeldin-a
p211
(VL13
p212
I40
tp213
sVosi-027
p214
(VL14
p215
I40
tp216
sVcortisol
p217
(VL15
p218
I40
tp219
sVtriciribine
p220
(VL16
p221
I40
tp222
sVlacidipine
p223
(VL17
p224
I40
tp225
sVmilrinone
p226
(VL18
p227
I40
tp228
sVgsk-1059615
p229
(VL19
p230
I40
tp231
sVretinoic acid
p232
(VM13
p233
I40
tp234
sVepirubicin
p235
(VM14
p236
I40
tp237
sVtetrabenazine
p238
(VM15
p239
I40
tp240
sVtg-101348
p241
(VM16
p242
I40
tp243
sVsulfamethoxypyridazine
p244
(VM17
p245
I40
tp246
sVmevastatin
p247
(VM18
p248
I40
tp249
sVcalcipotriol
p250
(VM19
p251
I40
tp252
sVcyclosporin-a
p253
(VN13
p254
I40
tp255
sVchir-99021
p256
(VN14
p257
I40
tp258
sVomiplasib
p259
(VN15
p260
I40
tp261
sVcamptothecin
p262
(VN16
p263
I40
tp264
sVanisomycin
p265
(VN17
p266
I40
tp267
sVetoposide
p268
(VN18
p269
I40
tp270
sVbortezomib
p271
(VN19
p272
I40
tp273
sVsorafenib
p274
(VO13
p275
I40
tp276
sVtrifluridine
p277
(VO14
p278
I40
tp279
sVlaq824
p280
(VO15
p281
I40
tp282
sVm-344
p283
(VO16
p284
I40
tp285
sVencorafenib
p286
(VO17
p287
I40
tp288
sVsgc-cbp30
p289
(VO18
p290
I40
tp291
sVvinblastine
p292
(VO19
p293
I40
tp294
sVresveratrol
p295
(VB20
p296
I40
tp297
sVtopotecan
p298
(VC20
p299
I40
tp300
sVzm447439
p301
(VD20
p302
I40
tp303
sVmelphalan
p304
(VE20
p305
I40
tp306
sVmycophenolic acid
p307
(VF20
p308
I40
tp309
sVdigitoxin
p310
(VG20
p311
I40
tp312
sVdigoxin
p313
(VH20
p314
I40
tp315
sVciclopirox
p316
(VI20
p317
I40
tp318
sVdaunorubicin
p319
(VJ20
p320
I40
tp321
sVgsk1120212
p322
(VK20
p323
I40
tp324
sVtolbutamide
p325
(VL20
p326
I40
tp327
sVtorin 2
p328
(VM20
p329
I40
tp330
sVdoxorubicin
p331
(VN20
p332
I40
tp333
s.